target datalayout = "e-m:e-p270:32:32-p271:32:32-p272:64:64-i64:64-i128:128-f80:128-n8:16:32:64-S128"
target triple = "x86_64-pc-linux-gnu"

%union.LWLockPadded = type { %struct.LWLock, [112 x i8] }
%struct.LWLock = type { i16, %struct.pg_atomic_uint32, %struct.proclist_head }
%struct.pg_atomic_uint32 = type { i32 }
%struct.proclist_head = type { i32, i32 }
%struct.TransamVariablesData = type { i32, i32, %struct.FullTransactionId, i32, i32, i32, i32, i32, i32, i32, i32, %struct.FullTransactionId, i64, i32 }
%struct.FullTransactionId = type { i64 }

@MainLWLockArray = external global ptr, align 8
@TransamVariables = external global ptr, align 8

; Function Attrs: nounwind uwtable
define dso_local void @AdvanceOldestCommitTsXid(i32 noundef %0) #0 {
  %2 = alloca i32, align 4
  store i32 %0, ptr %2, align 4
  %3 = load ptr, ptr @MainLWLockArray, align 8
  %4 = getelementptr inbounds %union.LWLockPadded, ptr %3, i64 39
  %5 = call zeroext i1 @LWLockAcquire(ptr noundef %4, i32 noundef 0)
  %6 = load ptr, ptr @TransamVariables, align 8
  %7 = getelementptr inbounds nuw %struct.TransamVariablesData, ptr %6, i32 0, i32 9
  %8 = load i32, ptr %7, align 8
  %9 = icmp ne i32 %8, 0
  br i1 %9, label %10, label %20

10:                                               ; preds = %1
  %11 = load ptr, ptr @TransamVariables, align 8
  %12 = getelementptr inbounds nuw %struct.TransamVariablesData, ptr %11, i32 0, i32 9
  %13 = load i32, ptr %12, align 8
  %14 = load i32, ptr %2, align 4
  %15 = call zeroext i1 @TransactionIdPrecedes(i32 noundef %13, i32 noundef %14)
  br i1 %15, label %16, label %20

16:                                               ; preds = %10
  %17 = load i32, ptr %2, align 4
  %18 = load ptr, ptr @TransamVariables, align 8
  %19 = getelementptr inbounds nuw %struct.TransamVariablesData, ptr %18, i32 0, i32 9
  store i32 %17, ptr %19, align 8
  br label %20

20:                                               ; preds = %16, %10, %1
  %21 = load ptr, ptr @MainLWLockArray, align 8
  %22 = getelementptr inbounds %union.LWLockPadded, ptr %21, i64 39
  call void @LWLockRelease(ptr noundef %22)
  ret void
}