; Function Attrs: nounwind uwtable
define dso_local void @AdvanceOldestCommitTsXid(i32 noundef %0) local_unnamed_addr #0 {
  %2 = load ptr, ptr @MainLWLockArray, align 8
  %3 = getelementptr inbounds nuw i8, ptr %2, i64 4992
  %4 = tail call zeroext i1 @LWLockAcquire(ptr noundef nonnull %3, i32 noundef 0) #9
  %5 = load ptr, ptr @TransamVariables, align 8
  %6 = getelementptr inbounds nuw i8, ptr %5, i64 40
  %7 = load i32, ptr %6, align 8
  %.not = icmp eq i32 %7, 0
  br i1 %.not, label %13, label %8

8:                                                ; preds = %1
  %9 = tail call zeroext i1 @TransactionIdPrecedes(i32 noundef %7, i32 noundef %0) #9
  br i1 %9, label %10, label %13

10:                                               ; preds = %8
  %11 = load ptr, ptr @TransamVariables, align 8
  %12 = getelementptr inbounds nuw i8, ptr %11, i64 40
  store i32 %0, ptr %12, align 8
  br label %13

13:                                               ; preds = %10, %8, %1
  %14 = load ptr, ptr @MainLWLockArray, align 8
  %15 = getelementptr inbounds nuw i8, ptr %14, i64 4992
  tail call void @LWLockRelease(ptr noundef nonnull %15) #9
  ret void
}